(lp0
S'http://feeds2.feedburner.com/washingtonwhispers\t\n'
p1
aS'http://rss.cnn.com/rss/cnn_behindthescenes.rss '
p2
aS'http://www.usnews.com/rss/news\t\n'
p3
aS'http://rss.ireport.com/feeds/oncnn.rss'
p4
aS'http://feeds.reuters.com/reuters/businessNews\t\t\n'
p5
aS'http://feeds.bbci.co.uk/news/video_and_audio/news_front_page/rss.xml?edition=uk\n'
p6
aS'http://www.nydailynews.com/entertainment/music-arts/index_rss.xml\n'
p7
aS'http://feeds.reuters.com/reuters/blogs/JamesSaft\t\t\n'
p8
aS'http://www.usnews.com/blogrss/washington-whispers.xml\t\n'
p9
aS'http://feeds.reuters.com/reuters/blogs/Faithworld\t\t\n'
p10
aS'http://feeds.reuters.com/reuters/mergersNews\t\t\n'
p11
aS'http://www.nydailynews.com/entertainment/index_rss.xml\n'
p12
aS'http://feeds.reuters.com/reuters/USVideoRoughCuts\t\t\n'
p13
aS'http://feeds.feedburner.com/reuters/blogs/data-dive\t\t\n'
p14
aS'http://feeds.reuters.com/reuters/USVideoMostWatched\t\t\n'
p15
aS'http://www.usnews.com/blogrss/Jamie-Stiehm.xml\t\n'
p16
aS'http://www.nydailynews.com/news/photos/index_rss.xml\n'
p17
aS'http://feeds.reuters.com/reuters/blogs/JohnWasik\t\t\n'
p18
aS'http://feeds.feedburner.com/reuters/blogs/DavosNotebook\t\t\n'
p19
aS'http://www.nydailynews.com/entertainment/photos/index_rss.xml\n'
p20
aS'http://feeds.reuters.com/reuters/blogs/felix-salmon\t\t\n'
p21
aS'http://www.usnews.com/blogrss/jodie-allen.xml\t\n'
p22
aS'http://feeds.reuters.com/reuters/blogs/talesfromthetrail\t\t\n'
p23
aS'http://feeds.reuters.com/reuters/USVideoEntertainment\t\t\n'
p24
aS'http://feeds.reuters.com/reuters/blogs/IanBremmer\t\t\n'
p25
aS'http://www.usnews.com/rss/opinion\t\n'
p26
aS'http://feeds.reuters.com/reuters/USVideoBusiness\t\t\n'
p27
aS'http://feeds.reuters.com/reuters/blogs/the-deep-end\t\t\n'
p28
aS'http://feeds.reuters.com/reuters/USVideoGigaom\t\t\n'
p29
aS'http://www.nydailynews.com/cmlink/NYDN.Blogs.The_Internets.rss\n'
p30
aS'http://www.nydailynews.com/sports/basketball/knicks/index_rss.xml\n'
p31
aS'http://feeds.reuters.com/reuters/noncyclicalconsumergoodsNews\t\t\n'
p32
aS'http://feeds.reuters.com/reuters/USVideoBusinessTravel\t\t\n'
p33
aS'http://feeds.reuters.com/reuters/USdollarreportNews\t\t\n'
p34
aS'http://www.nydailynews.com/cmlink/NYDN.Blogs.Mouth_Of_The_Potomac.rss\n'
p35
aS'http://feeds.reuters.com/reuters/entertainment\t\t\n'
p36
aS'http://www.nydailynews.com/life-style/real-estate/index_rss.xml\n'
p37
aS'http://www.reuters.com/rssFeed/newIssuesNews\t\t\n'
p38
aS'http://feeds.reuters.com/reuters/reuters/blogs/DavidCayJohnston\t\t\n'
p39
aS'http://feeds.reuters.com/reuters/summitNews\t\t\n'
p40
aS'http://feeds.reuters.com/reuters/blogs/mohamedelerian\t\t\n'
p41
aS'http://feeds.reuters.com/news/wealth\t\t\n'
p42
aS'http://feeds.reuters.com/reuters/blogs/HugoDixon\t\t\n'
p43
aS'http://feeds.reuters.com/reuters/blogs/mediafile\t\t\n'
p44
aS'http://feeds.reuters.com/reuters/blogs/entrepreneurial\t\t\n'
p45
aS'http://feeds.reuters.com/reuters/USVideoWorldNews\t\t'
p46
aS'http://feeds.reuters.com/reuters/UStechnologyTelcomNews\t\t\n'
p47
aS'http://feeds.reuters.com/news/reutersmedia\t\t\n'
p48
aS'http://feeds.reuters.com/reuters/USVideoPolitics\t\t\n'
p49
aS'http://www.usnews.com/blogrss/robert-schlesinger.xml\t\n'
p50
aS'http://feeds.reuters.com/reuters/privateequityNews\t\t\n'
p51
aS'http://feeds.reuters.com/reuters/blogs/reuters-editors\t\t\n'
p52
aS'http://www.nydailynews.com/ny_local/education/index_rss.xml\n'
p53
aS'http://www.nydailynews.com/life-style/horoscopes/index_rss.xml\n'
p54
aS'http://www.nydailynews.com/opinions/index_rss.xml\n'
p55
aS'http://www.nydailynews.com/cmlink/NYDN.Blogs.The_Blueshirts_Blog.rss\n'
p56
aS'http://www.nydailynews.com/sports/football/giants/index_rss.xml\n'
p57
aS'http://rss.cnn.com/rss/cnn_living.rss'
p58
aS'http://rss.cnn.com/rss/money_latest.rss'
p59
aS'http://feeds.bbci.co.uk/news/system/latest_published_content/rss.xml'
p60
aS'http://www.usnews.com/blogrss/outside-voices-careers.xml\t\n'
p61
aS'http://feeds2.feedburner.com/usnewsmoneybusiness\t\n'
p62
aS'http://www.nydailynews.com/cmlink/NYDN.Blogs.The_Beautiful_Blog.rss\n'
p63
aS'http://feeds.reuters.com/reuters/USVideoBreakingviews\t\t\n'
p64
aS'http://feeds.reuters.com/reuters/lifestyle\t\t\n'
p65
aS'http://www.nydailynews.com/sports/more_sports/index_rss.xml\n'
p66
aS'http://rss.cnn.com/rss/cnn_topstories.rss'
p67
aS'http://feeds.reuters.com/reuters/bankruptcyNews\t\t\n'
p68
aS'http://www.nydailynews.com/services/feeds#ixzz2zT3M6JvP'
p69
aS'http://feeds.reuters.com/reuters/USVideoPersonalFinance\t\t\n'
p70
aS'http://feeds.reuters.com/reuters/blogs/AnthonyDerosa\t\t\n'
p71
aS'http://feeds.reuters.com/reuters/blogs/GeraldineFabrikant\t\t\n'
p72
aS'http://feeds.reuters.com/reuters/USVideoOddlyEnough\t\t\n'
p73
aS'http://feeds2.feedburner.com/alphaconsumer\t\n'
p74
aS'http://www.nydailynews.com/news/columnists/index_rss.xml\n'
p75
aS'http://www.nydailynews.com/sports/baseball/index_rss.xml\n'
p76
aS'http://feeds.bbci.co.uk/news/video_and_audio/uk/rss.xml\n'
p77
aS'http://feeds.reuters.com/reuters/blogs/the-great-debate\t\t\n'
p78
aS'http://rss.cnn.com/rss/cnn_latest.rss'
p79
aS'http://feeds.reuters.com/reuters/blogs/macroscope\t\t\n'
p80
aS'http://feeds.reuters.com/reuters/blogs/JamesPethokoukis\t\t\n'
p81
aS'http://feeds.reuters.com/reuters/blogs/JohnCAbell\t\t\n'
p82
aS'http://feeds.reuters.com/UnstructuredFinance\t\t\n'
p83
aS'http://feeds.reuters.com/reuters/blogs/India\t\t\n'
p84
aS'http://feeds.reuters.com/reuters/sportsNews\t\t\n'
p85
aS'http://feeds.reuters.com/reuters/USenergyNews\t\t\n'
p86
aS'http://feeds.reuters.com/Reuters/PoliticsNews\t\t\n'
p87
aS'http://www.usnews.com/blogrss/mary-kate-cary.xml\t\n'
p88
aS'http://www.usnews.com/rss/health-news\t\n'
p89
aS'http://www.nydailynews.com/sports/football/index_rss.xml\n'
p90
aS'http://feeds.reuters.com/reuters/USVideoEnvironment\t\t\n'
p91
aS'http://www.nydailynews.com/cmlink/NYDN.Blogs.Knicks_Knation.rss\n'
p92
aS'http://feeds.reuters.com/reuters/globalmarketsNews\t\t\n'
p93
aS'http://feeds.reuters.com/reuters/USVideoNewsmakers\t\t\n'
p94
aS'http://feeds.reuters.com/reuters/USVideoLatest\t\t\n'
p95
aS'http://rss.cnn.com/rss/cnn_studentnews.rss'
p96
aS'http://www.nydailynews.com/new-york/queens/index_rss.xml\n'
p97
aS'http://feeds.reuters.com/reuters/oddlyEnoughNews\t\t\n'
p98
aS'http://feeds.reuters.com/ReutersBusinessTravel\t\t\n'
p99
aS'http://www.nydailynews.com/news/world/index_rss.xml\n'
p100
aS'http://feeds.reuters.com/reuters/blogs/LawrenceSummers\t\t\n'
p101
aS'http://feeds.bbci.co.uk/news/education/rss.xml\n'
p102
aS'http://www.usnews.com/blogrss/on-parenting.xml\t\n'
p103
aS'http://feeds.reuters.com/reuters/blogs/newsmaker\t\t\n'
p104
aS'http://feeds.reuters.com/Counterparties\t\t\n'
p105
aS'http://feeds.reuters.com/reuters/USVideoSmallBusiness\t\t\n'
p106
aS'http://www.nydailynews.com/cmlink/NYDN.Blogs.The_Schoolyard.rss\n'
p107
aS'http://www.nydailynews.com/new-york/bronx/index_rss.xml\n'
p108
aS'http://feeds.bbci.co.uk/news/technology/rss.xml\n'
p109
aS'http://feeds.reuters.com/news/artsculture\t\t\n'
p110
aS'http://www.nydailynews.com/cmlink/NYDN.Blogs.The_Sports_Iteam_Blog.rss\n'
p111
aS'http://www.nydailynews.com/life-style/eats/index_rss.xml\n'
p112
aS'http://feeds.reuters.com/LucyMarcus\t\t\n'
p113
aS'http://feeds.reuters.com/reuters/USVideoFelixSalmon\t\t\n'
p114
aS'http://feeds.reuters.com/reuters/blogs/FinancialRegulatoryForum\t\t\n'
p115
aS'http://feeds.reuters.com/reuters/smallBusinessNews\t\t\n'
p116
aS'http://feeds.bbci.co.uk/news/science_and_environment/rss.xml\n'
p117
aS'http://feeds.reuters.com/reuters/peopleNews\t\t\n'
p118
aS'http://www.usnews.com/blogrss/peter-roff.xml\t\n'
p119
aS'http://www.nydailynews.com/sports/baseball/mets/index_rss.xml\n'
p120
aS'http://rss.cnn.com/rss/cnn_mostpopular.rss'
p121
aS'http://feeds.reuters.com/reuters/topNews\t\t\n'
p122
aS'http://www.nydailynews.com/news/politics/index_rss.xml\n'
p123
aS'http://feeds.reuters.com/reuters/USVideoChrystiaFreeland\t\t\n'
p124
aS'http://feeds.reuters.com/reuters/environment\t\t\n'
p125
aS'http://feeds.reuters.com/reuters/financialServicesrealEstateNews\t\t\n'
p126
aS'http://www.nydailynews.com/sports/high_school/index_rss.xml\n'
p127
aS'http://www.nydailynews.com/life-style/photos/index_rss.xml\n'
p128
aS'http://www.nydailynews.com/gossip/index_rss.xml\n'
p129
aS'http://www.nydailynews.com/cmlink/NYDN.Blogs.The_Jets_Stream.rss\n'
p130
aS'http://feeds.reuters.com/reuters/technologyNews\t\t\n'
p131
aS'http://www.nydailynews.com/sports/basketball/index_rss.xml\n'
p132
aS'http://www.usnews.com/blogrss/sam-dealey.xml\t\n'
p133
aS'http://www.usnews.com/blogrss/morgan-felchner.xml\t\n'
p134
aS'http://feeds.reuters.com/reuters/scienceNews\t\t\n'
p135
aS'http://www.nydailynews.com/cmlink/NYDN.Blogs.Blogging_The_Bombers.rss\n'
p136
aS'http://www.nydailynews.com/news/crime/index_rss.xml\n'
p137
aS'http://feeds.reuters.com/reuters/blogs/jackshafer\t\t\n'
p138
aS'http://rss.cnn.com/rss/cnn_travel.rss'
p139
aS'http://www.nydailynews.com/sports/football/jets/index_rss.xml\n'
p140
aS'http://www.nydailynews.com/news/national/index_rss.xml\n'
p141
aS'http://feeds.reuters.com/reuters/hotStocksNews\t\t\n'
p142
aS'http://feeds.reuters.com/reuters/blogs/GeorgeChen\t\t\n'
p143
aS'http://www.nydailynews.com/index_rss.xml\n'
p144
aS'http://feeds.reuters.com/reuters/financialsNews\t\t\n'
p145
aS'http://feeds.reuters.com/reuters/blogs/ReutersBreakingviews\t\t\n'
p146
aS'http://www.usnews.com/blogrss/healthcare-headaches.xml\t\n'
p147
aS'http://feeds.reuters.com/reuters/healthNews\t\t\n'
p148
aS'http://feeds.reuters.com/news/deals\t\t\n'
p149
aS'http://www.nydailynews.com/cmlink/NYDN.Blogs.Running_Dialogue.rss\n'
p150
aS'http://feeds.reuters.com/reuters/Election2012\t\t\n'
p151
aS'http://feeds.reuters.com/reuters/blogs/FundsHub\t\t\n'
p152
aS'http://rss.cnn.com/rss/cnn_health.rss'
p153
aS'http://feeds.reuters.com/reuters/blogs/taxbreak\t\t\n'
p154
aS'http://feeds.reuters.com/reuters/blogs/the-human-impact\t\t\n'
p155
aS'http://feeds.reuters.com/reuters/iOWg\t\t\n'
p156
aS'http://feeds.reuters.com/reuters/technologysectorNews\t\t\n'
p157
aS'http://feeds.reuters.com/reuters/UShealthcareNews\t\t\n'
p158
aS'http://feeds.reuters.com/ChrystiaFreeland\t\t\n'
p159
aS'http://feeds.reuters.com/news/usmarkets\t\t\n'
p160
aS'http://www.nydailynews.com/sports/college/index_rss.xml\n'
p161
aS'http://www.usnews.com/blogrss/on-fitness.xml\t\n'
p162
aS'http://feeds.reuters.com/reuters/blogs/for-the-record\t\t\n'
p163
aS'http://feeds.reuters.com/reuters/basicmaterialsNews\t\t\n'
p164
aS'http://www.nydailynews.com/cmlink/NYDN.Blogs.Channel_Surfer.rss\n'
p165
aS'http://feeds.bbci.co.uk/news/business/rss.xml\n'
p166
aS'http://feeds.reuters.com/reuters/utilitiesNews\t\t\n'
p167
aS'http://feeds.reuters.com/Reuters/domesticNews\t\t\n'
p168
aS'http://feeds.reuters.com/reuters/blogs/reuters-dealzone\t\t\n'
p169
aS'http://www.nydailynews.com/cmlink/NYDN.Blogs.The_Daily_Politics.rss\n'
p170
aS'http://feeds.bbci.co.uk/news/politics/rss.xml\n'
p171
aS'http://feeds.reuters.com/reuters/blogs/SummitNotebook\t\t\n'
p172
aS'http://www.nydailynews.com/cmlink/NYDN.Blogs.Page_Views.rss\n'
p173
aS'http://feeds.reuters.com/reuters/MostRead\t\t\n'
p174
aS'http://www.usnews.com/blogrss/planning-to-retire.xml\t\n'
p175
aS'http://www.nydailynews.com/entertainment/tv-movies/index_rss.xml\n'
p176
aS'http://rss.cnn.com/rss/cnn_tech.rss'
p177
aS'http://www.usnews.com/rss/money/index.rss\t\n'
p178
aS'http://www.usnews.com/blogrss/doug-heye.xml\t\n'
p179
aS'http://www.nydailynews.com/sports/hockey/index_rss.xml\n'
p180
aS'http://feeds.bbci.co.uk/news/entertainment_and_arts/rss.xml\n'
p181
aS'http://rss.cnn.com/rss/cnn_showbiz.rss'
p182
aS'http://www.usnews.com/rss/science\t\n'
p183
aS'http://www.usnews.com/rss/education\t\n'
p184
aS'http://feeds.reuters.com/reuters/USVideoTopNews\t\t\n'
p185
aS'http://feeds.reuters.com/reuters/bondsNews\t\t\n'
p186
aS'http://www.nydailynews.com/new-york/uptown/index_rss.xml\n'
p187
aS'http://www.nydailynews.com/entertainment/gossip/confidential/index_rss.xml\n'
p188
aS'http://www.nydailynews.com/cmlink/NYDN.Blogs.rss\n'
p189
aS'http://rss.cnn.com/rss/cnn_world.rss'
p190
aS'http://feeds.reuters.com/Reuters/worldNews\t\t\n'
p191
aS'http://www.nydailynews.com/sports/photos/index_rss.xml\n'
p192
aS'http://feeds.reuters.com/news/economy\t\t\n'
p193
aS'http://www.usnews.com/blogrss/college-rankings-blog.xml\t\n'
p194
aS'http://feeds.reuters.com/reuters/blogs/GlobalInvesting\t\t\n'
p195
aS'http://feeds.reuters.com/reuters/cyclicalconsumergoodsNews\t\t\n'
p196
aS'http://www.nydailynews.com/sports/baseball/yankees/index_rss.xml\n'
p197
aS'http://feeds.reuters.com/reuters/blogs/AfghanJournal\t\t\n'
p198
aS'http://feeds.reuters.com/ReutersPictures\t\t\n'
p199
aS'http://feeds.bbci.co.uk/news/health/rss.xml\n'
p200
aS'http://www.nydailynews.com/sports/basketball/nets/index_rss.xml\n'
p201
aS'http://feeds.reuters.com/reuters/companyNews\t\t\n'
p202
aS'http://feeds.reuters.com/reuters/governmentfilingsNews\t\t\n'
p203
aS'http://feeds.reuters.com/news/hedgefunds\t\t\n'
p204
aS'http://feeds.bbci.co.uk/news/video_and_audio/uk/rss.xml'
p205
aS'http://www.nydailynews.com/entertainment/columnists/index_rss.xml\n'
p206
aS'http://www.nydailynews.com/cmlink/NYDN.Blogs.Show_And_Tell.rss\n'
p207
aS'http://rss.cnn.com/rss/cnn_us.rss'
p208
aS'http://www.nydailynews.com/cmlink/NYDN.Blogs.Surfing_The_Mets.rss\n'
p209
aS'http://www.nydailynews.com/new-york/index_rss.xml\n'
p210
aS'http://feeds.reuters.com/reuters/USmediaDiversifiedNews\t\t\n'
p211
aS'http://feeds.reuters.com/reuters/USVideoLifestyle\t\t\n'
p212
aS'http://www.usnews.com/blogrss/the-best-life.xml\t\n'
p213
aS'http://www.usnews.com/blogrss/editors-note.xml\t\n'
p214
aS'http://feeds.bbci.co.uk/news/world/rss.xml\n'
p215
aS'http://www.nydailynews.com/cmlink/NYDN.Blogs.The_Blue_Screen.rss\n'
p216
aS'http://feeds.reuters.com/reuters/telecomsectorNews\t\t\n'
p217
aS'http://www.nydailynews.com/life-style/index_rss.xml\n'
p218
aS'http://feeds.reuters.com/reuters/USVideoTechnology\t\t\n'
p219
aS'http://feeds.reuters.com/reuters/blogs/photo\t\t\n'
p220
aS'http://www.nydailynews.com/sports/hockey/rangers/index_rss.xml\n'
p221
aS'http://www.nydailynews.com/cmlink/NYDN.Blogs.The_Bitter_Bill.rss\n'
p222
aS'http://www.nydailynews.com/sports/columnists/index_rss.xml\n'
p223
aS'http://www.nydailynews.com/cmlink/NYDN.Blogs.From_The_Bunker.rss\n'
p224
aS'http://www.nydailynews.com/lifestyle/health/index_rss.xml\n'
p225
aS'http://feeds.reuters.com/reuters/industrialsNews\t\t\n'
p226
aS'http://rss.cnn.com/rss/cnn_crime.rss'
p227
aS'http://www.nydailynews.com/new-york/brooklyn/index_rss.xml\n'
p228
aS'http://www.nydailynews.com/opinions/columnists/index_rss.xml\n'
p229
aS'http://www.nydailynews.com/sports/index_rss.xml\n'
p230
aS'http://rss.cnn.com/rss/cnn_allpolitics.rss'
p231
a.